; Function Attrs: mustprogress uwtable
define internal void @_ZNSt17_Function_handlerIFvPvPiS1_EZN4absl18container_internal12_GLOBAL__N_14TestC1EvEUlS0_S1_S1_E_E9_M_invokeERKSt9_Any_dataOS0_OS1_SD_(ptr noundef nonnull readonly align 8 captures(none) dereferenceable(16) %0, ptr noundef nonnull readonly align 8 captures(none) dereferenceable(8) %1, ptr noundef nonnull readonly align 8 captures(none) dereferenceable(8) %2, ptr noundef nonnull readonly align 8 captures(none) dereferenceable(8) %3) #4 align 2 personality ptr @__gxx_personality_v0 {
  %5 = alloca %"class.std::tuple.103", align 8
  %.val = load ptr, ptr %0, align 8, !tbaa !573
  %.val4 = load ptr, ptr %1, align 8, !tbaa !61
  %.val5 = load ptr, ptr %2, align 8, !tbaa !80
  %.val6 = load ptr, ptr %3, align 8, !tbaa !80
  %6 = getelementptr inbounds nuw i8, ptr %.val, i64 240
  tail call void @_ZN7testing8internal25UntypedFunctionMockerBase15SetOwnerAndNameEPKvPKc(ptr noundef nonnull align 8 dereferenceable(72) %6, ptr noundef nonnull align 8 dereferenceable(72) %6, ptr noundef nonnull @.str.73)
  call void @llvm.lifetime.start.p0(i64 24, ptr nonnull %5) #28
  store ptr %.val6, ptr %5, align 8, !tbaa !575
  %7 = getelementptr inbounds nuw i8, ptr %5, i64 8
  store ptr %.val5, ptr %7, align 8, !tbaa !420
  %8 = getelementptr inbounds nuw i8, ptr %5, i64 16
  store ptr %.val4, ptr %8, align 8, !tbaa !422
  call void @_ZN7testing8internal14FunctionMockerIFvPvPiS3_EE10InvokeWithEOSt5tupleIJS2_S3_S3_EE(ptr noundef nonnull align 8 dereferenceable(72) %6, ptr noundef nonnull align 8 dereferenceable(24) %5)
  call void @llvm.lifetime.end.p0(i64 24, ptr nonnull %5) #28
  ret void
}